target datalayout = "e-m:e-p270:32:32-p271:32:32-p272:64:64-i64:64-i128:128-f80:128-n8:16:32:64-S128"
target triple = "x86_64-unknown-linux-gnu"

%"class.std::__cxx11::basic_string" = type { %"struct.std::__cxx11::basic_string<char>::_Alloc_hider", i64, %union.anon }
%"struct.std::__cxx11::basic_string<char>::_Alloc_hider" = type { ptr }
%union.anon = type { i64, [8 x i8] }

; Function Attrs: mustprogress nounwind uwtable
define linkonce_odr hidden noundef i32 @_ZN6Assimp14ASSIMP_stricmpERKNSt7__cxx1112basic_stringIcSt11char_traitsIcESaIcEEES7_(ptr noundef nonnull align 8 dereferenceable(32) %a, ptr noundef nonnull align 8 dereferenceable(32) %b) #0 comdat {
entry:
  %a.addr = alloca ptr, align 8
  %b.addr = alloca ptr, align 8
  %i = alloca i32, align 4
  store ptr %a, ptr %a.addr, align 8
  store ptr %b, ptr %b.addr, align 8
  %0 = load ptr, ptr %b.addr, align 8
  %call = call noundef i64 @_ZNKSt7__cxx1112basic_stringIcSt11char_traitsIcESaIcEE6lengthEv(ptr noundef nonnull align 8 dereferenceable(32) %0) #11
  %conv = trunc i64 %call to i32
  %1 = load ptr, ptr %a.addr, align 8
  %call1 = call noundef i64 @_ZNKSt7__cxx1112basic_stringIcSt11char_traitsIcESaIcEE6lengthEv(ptr noundef nonnull align 8 dereferenceable(32) %1) #11
  %conv2 = trunc i64 %call1 to i32
  %sub = sub nsw i32 %conv, %conv2
  store i32 %sub, ptr %i, align 4
  %2 = load i32, ptr %i, align 4
  %tobool = icmp ne i32 %2, 0
  br i1 %tobool, label %cond.true, label %cond.false

cond.true:                                        ; preds = %entry
  %3 = load i32, ptr %i, align 4
  br label %cond.end

cond.false:                                       ; preds = %entry
  %4 = load ptr, ptr %a.addr, align 8
  %call3 = call noundef ptr @_ZNKSt7__cxx1112basic_stringIcSt11char_traitsIcESaIcEE5c_strEv(ptr noundef nonnull align 8 dereferenceable(32) %4) #11
  %5 = load ptr, ptr %b.addr, align 8
  %call4 = call noundef ptr @_ZNKSt7__cxx1112basic_stringIcSt11char_traitsIcESaIcEE5c_strEv(ptr noundef nonnull align 8 dereferenceable(32) %5) #11
  %call5 = call noundef i32 @_ZN6Assimp14ASSIMP_stricmpEPKcS1_(ptr noundef %call3, ptr noundef %call4)
  br label %cond.end

cond.end:                                         ; preds = %cond.false, %cond.true
  %cond = phi i32 [ %3, %cond.true ], [ %call5, %cond.false ]
  ret i32 %cond
}

; Function Attrs: mustprogress nounwind uwtable
define linkonce_odr hidden noundef i32 @_ZN6Assimp14ASSIMP_stricmpEPKcS1_(ptr noundef %s1, ptr noundef %s2) #0 comdat {
entry:
  %s1.addr = alloca ptr, align 8
  %s2.addr = alloca ptr, align 8
  %c1 = alloca i8, align 1
  %c2 = alloca i8, align 1
  store ptr %s1, ptr %s1.addr, align 8
  store ptr %s2, ptr %s2.addr, align 8
  br label %do.body

do.body:                                          ; preds = %land.end, %entry
  %0 = load ptr, ptr %s1.addr, align 8
  %incdec.ptr = getelementptr inbounds i8, ptr %0, i32 1
  store ptr %incdec.ptr, ptr %s1.addr, align 8
  %1 = load i8, ptr %0, align 1
  %conv = zext i8 %1 to i32
  %call = call i32 @tolower(i32 noundef %conv) #13
  %conv1 = trunc i32 %call to i8
  store i8 %conv1, ptr %c1, align 1
  %2 = load ptr, ptr %s2.addr, align 8
  %incdec.ptr2 = getelementptr inbounds i8, ptr %2, i32 1
  store ptr %incdec.ptr2, ptr %s2.addr, align 8
  %3 = load i8, ptr %2, align 1
  %conv3 = zext i8 %3 to i32
  %call4 = call i32 @tolower(i32 noundef %conv3) #13
  %conv5 = trunc i32 %call4 to i8
  store i8 %conv5, ptr %c2, align 1
  br label %do.cond

do.cond:                                          ; preds = %do.body
  %4 = load i8, ptr %c1, align 1
  %tobool = icmp ne i8 %4, 0
  br i1 %tobool, label %land.rhs, label %land.end

land.rhs:                                         ; preds = %do.cond
  %5 = load i8, ptr %c1, align 1
  %conv6 = sext i8 %5 to i32
  %6 = load i8, ptr %c2, align 1
  %conv7 = sext i8 %6 to i32
  %cmp = icmp eq i32 %conv6, %conv7
  br label %land.end

land.end:                                         ; preds = %land.rhs, %do.cond
  %7 = phi i1 [ false, %do.cond ], [ %cmp, %land.rhs ]
  br i1 %7, label %do.body, label %do.end, !llvm.loop !4

do.end:                                           ; preds = %land.end
  %8 = load i8, ptr %c1, align 1
  %conv8 = sext i8 %8 to i32
  %9 = load i8, ptr %c2, align 1
  %conv9 = sext i8 %9 to i32
  %sub = sub nsw i32 %conv8, %conv9
  ret i32 %sub
}

; Function Attrs: mustprogress uwtable
define noundef zeroext i1 @_ZNK6Assimp15DefaultIOSystem12ComparePathsEPKcS2_(ptr noundef nonnull align 8 dereferenceable(32) %this, ptr noundef %one, ptr noundef %second) unnamed_addr #2 align 2 personality ptr @__gxx_personality_v0 {
entry:
  %retval = alloca i1, align 1
  %this.addr = alloca ptr, align 8
  %one.addr = alloca ptr, align 8
  %second.addr = alloca ptr, align 8
  %temp1 = alloca %"class.std::__cxx11::basic_string", align 8
  %temp2 = alloca %"class.std::__cxx11::basic_string", align 8
  %exn.slot = alloca ptr, align 8
  %ehselector.slot = alloca i32, align 4
  store ptr %this, ptr %this.addr, align 8
  store ptr %one, ptr %one.addr, align 8
  store ptr %second, ptr %second.addr, align 8
  %0 = load ptr, ptr %one.addr, align 8
  %1 = load ptr, ptr %second.addr, align 8
  %call = call noundef i32 @_ZN6Assimp14ASSIMP_stricmpEPKcS1_(ptr noundef %0, ptr noundef %1)
  %tobool = icmp ne i32 %call, 0
  br i1 %tobool, label %if.end, label %if.then

if.then:                                          ; preds = %entry
  store i1 true, ptr %retval, align 1
  br label %return

if.end:                                           ; preds = %entry
  %2 = load ptr, ptr %one.addr, align 8
  call void @_ZL16MakeAbsolutePathB5cxx11PKc(ptr sret(%"class.std::__cxx11::basic_string") align 8 %temp1, ptr noundef %2)
  %3 = load ptr, ptr %second.addr, align 8
  invoke void @_ZL16MakeAbsolutePathB5cxx11PKc(ptr sret(%"class.std::__cxx11::basic_string") align 8 %temp2, ptr noundef %3)
          to label %invoke.cont unwind label %lpad

invoke.cont:                                      ; preds = %if.end
  %call4 = invoke noundef i32 @_ZN6Assimp14ASSIMP_stricmpERKNSt7__cxx1112basic_stringIcSt11char_traitsIcESaIcEEES7_(ptr noundef nonnull align 8 dereferenceable(32) %temp1, ptr noundef nonnull align 8 dereferenceable(32) %temp2)
          to label %invoke.cont3 unwind label %lpad2

invoke.cont3:                                     ; preds = %invoke.cont
  %tobool5 = icmp ne i32 %call4, 0
  %lnot = xor i1 %tobool5, true
  store i1 %lnot, ptr %retval, align 1
  call void @_ZNSt7__cxx1112basic_stringIcSt11char_traitsIcESaIcEED1Ev(ptr noundef nonnull align 8 dereferenceable(32) %temp2) #11
  call void @_ZNSt7__cxx1112basic_stringIcSt11char_traitsIcESaIcEED1Ev(ptr noundef nonnull align 8 dereferenceable(32) %temp1) #11
  br label %return

lpad:                                             ; preds = %if.end
  %4 = landingpad { ptr, i32 }
          cleanup
  %5 = extractvalue { ptr, i32 } %4, 0
  store ptr %5, ptr %exn.slot, align 8
  %6 = extractvalue { ptr, i32 } %4, 1
  store i32 %6, ptr %ehselector.slot, align 4
  br label %ehcleanup

lpad2:                                            ; preds = %invoke.cont
  %7 = landingpad { ptr, i32 }
          cleanup
  %8 = extractvalue { ptr, i32 } %7, 0
  store ptr %8, ptr %exn.slot, align 8
  %9 = extractvalue { ptr, i32 } %7, 1
  store i32 %9, ptr %ehselector.slot, align 4
  call void @_ZNSt7__cxx1112basic_stringIcSt11char_traitsIcESaIcEED1Ev(ptr noundef nonnull align 8 dereferenceable(32) %temp2) #11
  br label %ehcleanup

ehcleanup:                                        ; preds = %lpad2, %lpad
  call void @_ZNSt7__cxx1112basic_stringIcSt11char_traitsIcESaIcEED1Ev(ptr noundef nonnull align 8 dereferenceable(32) %temp1) #11
  br label %eh.resume

return:                                           ; preds = %invoke.cont3, %if.then
  %10 = load i1, ptr %retval, align 1
  ret i1 %10

eh.resume:                                        ; preds = %ehcleanup
  %exn = load ptr, ptr %exn.slot, align 8
  %sel = load i32, ptr %ehselector.slot, align 4
  %lpad.val = insertvalue { ptr, i32 } poison, ptr %exn, 0
  %lpad.val6 = insertvalue { ptr, i32 } %lpad.val, i32 %sel, 1
  resume { ptr, i32 } %lpad.val6
}