; Function Attrs: mustprogress uwtable
define noundef zeroext i1 @_ZNK6Assimp15DefaultIOSystem12ComparePathsEPKcS2_(ptr nocapture nonnull readnone align 8 %this, ptr noundef %one, ptr noundef %second) unnamed_addr #4 align 2 personality ptr @__gxx_personality_v0 {
entry:
  %temp1 = alloca %"class.std::__cxx11::basic_string", align 8
  %temp2 = alloca %"class.std::__cxx11::basic_string", align 8
  br label %do.body.i

do.body.i:                                        ; preds = %do.body.i, %entry
  %s2.addr.0.i = phi ptr [ %second, %entry ], [ %incdec.ptr2.i, %do.body.i ]
  %s1.addr.0.i = phi ptr [ %one, %entry ], [ %incdec.ptr.i, %do.body.i ]
  %incdec.ptr.i = getelementptr inbounds i8, ptr %s1.addr.0.i, i64 1
  %0 = load i8, ptr %s1.addr.0.i, align 1
  %conv.i = zext i8 %0 to i32
  %call.i = tail call i32 @tolower(i32 noundef %conv.i) #21
  %incdec.ptr2.i = getelementptr inbounds i8, ptr %s2.addr.0.i, i64 1
  %1 = load i8, ptr %s2.addr.0.i, align 1
  %conv3.i = zext i8 %1 to i32
  %call4.i = tail call i32 @tolower(i32 noundef %conv3.i) #21
  %2 = and i32 %call.i, 255
  %tobool.i = icmp ne i32 %2, 0
  %cmp.i.unshifted = xor i32 %call.i, %call4.i
  %cmp.i.mask = and i32 %cmp.i.unshifted, 255
  %cmp.i = icmp eq i32 %cmp.i.mask, 0
  %3 = select i1 %tobool.i, i1 %cmp.i, i1 false
  br i1 %3, label %do.body.i, label %_ZN6Assimp14ASSIMP_stricmpEPKcS1_.exit, !llvm.loop !4

_ZN6Assimp14ASSIMP_stricmpEPKcS1_.exit:           ; preds = %do.body.i
  br i1 %cmp.i, label %return, label %if.end

if.end:                                           ; preds = %_ZN6Assimp14ASSIMP_stricmpEPKcS1_.exit
  call fastcc void @_ZL16MakeAbsolutePathB5cxx11PKc(ptr noalias nonnull align 8 %temp1, ptr noundef %one)
  invoke fastcc void @_ZL16MakeAbsolutePathB5cxx11PKc(ptr noalias nonnull align 8 %temp2, ptr noundef %second)
          to label %invoke.cont unwind label %lpad

invoke.cont:                                      ; preds = %if.end
  %call.i3 = call noundef i64 @_ZNKSt7__cxx1112basic_stringIcSt11char_traitsIcESaIcEE6lengthEv(ptr noundef nonnull align 8 dereferenceable(32) %temp2) #19
  %conv.i4 = trunc i64 %call.i3 to i32
  %call1.i = call noundef i64 @_ZNKSt7__cxx1112basic_stringIcSt11char_traitsIcESaIcEE6lengthEv(ptr noundef nonnull align 8 dereferenceable(32) %temp1) #19
  %conv2.i = trunc i64 %call1.i to i32
  %tobool.not.i = icmp eq i32 %conv.i4, %conv2.i
  br i1 %tobool.not.i, label %cond.false.i, label %_ZN6Assimp14ASSIMP_stricmpERKNSt7__cxx1112basic_stringIcSt11char_traitsIcESaIcEEES7_.exit

cond.false.i:                                     ; preds = %invoke.cont
  %call3.i = call noundef ptr @_ZNKSt7__cxx1112basic_stringIcSt11char_traitsIcESaIcEE5c_strEv(ptr noundef nonnull align 8 dereferenceable(32) %temp1) #19
  %call4.i6 = call noundef ptr @_ZNKSt7__cxx1112basic_stringIcSt11char_traitsIcESaIcEE5c_strEv(ptr noundef nonnull align 8 dereferenceable(32) %temp2) #19
  br label %do.body.i.i

do.body.i.i:                                      ; preds = %do.body.i.i, %cond.false.i
  %s2.addr.0.i.i = phi ptr [ %call4.i6, %cond.false.i ], [ %incdec.ptr2.i.i, %do.body.i.i ]
  %s1.addr.0.i.i = phi ptr [ %call3.i, %cond.false.i ], [ %incdec.ptr.i.i, %do.body.i.i ]
  %incdec.ptr.i.i = getelementptr inbounds i8, ptr %s1.addr.0.i.i, i64 1
  %4 = load i8, ptr %s1.addr.0.i.i, align 1
  %conv.i.i = zext i8 %4 to i32
  %call.i.i = call i32 @tolower(i32 noundef %conv.i.i) #21
  %incdec.ptr2.i.i = getelementptr inbounds i8, ptr %s2.addr.0.i.i, i64 1
  %5 = load i8, ptr %s2.addr.0.i.i, align 1
  %conv3.i.i = zext i8 %5 to i32
  %call4.i.i = call i32 @tolower(i32 noundef %conv3.i.i) #21
  %6 = and i32 %call.i.i, 255
  %tobool.i.i = icmp ne i32 %6, 0
  %cmp.i.i.unshifted = xor i32 %call.i.i, %call4.i.i
  %cmp.i.i.mask = and i32 %cmp.i.i.unshifted, 255
  %cmp.i.i = icmp eq i32 %cmp.i.i.mask, 0
  %7 = select i1 %tobool.i.i, i1 %cmp.i.i, i1 false
  br i1 %7, label %do.body.i.i, label %_ZN6Assimp14ASSIMP_stricmpERKNSt7__cxx1112basic_stringIcSt11char_traitsIcESaIcEEES7_.exit, !llvm.loop !4

_ZN6Assimp14ASSIMP_stricmpERKNSt7__cxx1112basic_stringIcSt11char_traitsIcESaIcEEES7_.exit: ; preds = %do.body.i.i, %invoke.cont
  %cond.i = phi i1 [ false, %invoke.cont ], [ %cmp.i.i, %do.body.i.i ]
  call void @_ZNSt7__cxx1112basic_stringIcSt11char_traitsIcESaIcEED1Ev(ptr noundef nonnull align 8 dereferenceable(32) %temp2) #19
  call void @_ZNSt7__cxx1112basic_stringIcSt11char_traitsIcESaIcEED1Ev(ptr noundef nonnull align 8 dereferenceable(32) %temp1) #19
  br label %return

lpad:                                             ; preds = %if.end
  %8 = landingpad { ptr, i32 }
          cleanup
  call void @_ZNSt7__cxx1112basic_stringIcSt11char_traitsIcESaIcEED1Ev(ptr noundef nonnull align 8 dereferenceable(32) %temp1) #19
  resume { ptr, i32 } %8

return:                                           ; preds = %_ZN6Assimp14ASSIMP_stricmpEPKcS1_.exit, %_ZN6Assimp14ASSIMP_stricmpERKNSt7__cxx1112basic_stringIcSt11char_traitsIcESaIcEEES7_.exit
  %retval.0 = phi i1 [ %cond.i, %_ZN6Assimp14ASSIMP_stricmpERKNSt7__cxx1112basic_stringIcSt11char_traitsIcESaIcEEES7_.exit ], [ true, %_ZN6Assimp14ASSIMP_stricmpEPKcS1_.exit ]
  ret i1 %retval.0
}